; Function Attrs: nounwind uwtable
define internal range(i32 -1, 1) i32 @H5O__linfo_delete(ptr noundef %0, ptr readnone captures(none) %1, ptr noundef %2) #0 {
  %4 = load i8, ptr @H5O_init_g, align 1, !tbaa !3, !range !7, !noundef !8
  %5 = trunc nuw i8 %4 to i1
  %6 = load i8, ptr @H5_libterm_g, align 1, !range !7
  %7 = trunc nuw i8 %6 to i1
  %8 = xor i1 %7, true
  %9 = select i1 %5, i1 true, i1 %8
  br i1 %9, label %10, label %20, !prof !9

10:                                               ; preds = %3
  %11 = getelementptr inbounds nuw i8, ptr %2, i64 32
  %12 = load i64, ptr %11, align 8, !tbaa !25
  %.not = icmp eq i64 %12, -1
  br i1 %.not, label %20, label %13

13:                                               ; preds = %10
  %14 = tail call i32 @H5G__dense_delete(ptr noundef %0, ptr noundef nonnull %2, i1 noundef zeroext true) #7
  %15 = icmp slt i32 %14, 0
  br i1 %15, label %16, label %20

16:                                               ; preds = %13
  %17 = load i64, ptr @H5E_OHDR_g, align 8, !tbaa !10
  %18 = load i64, ptr @H5E_CANTFREE_g, align 8, !tbaa !10
  %19 = tail call i32 (ptr, ptr, i32, i64, i64, ptr, ...) @H5E_printf_stack(ptr noundef nonnull @.str.1, ptr noundef nonnull @__func__.H5O__linfo_delete, i32 noundef 345, i64 noundef %17, i64 noundef %18, ptr noundef nonnull @.str.9) #7
  br label %20

20:                                               ; preds = %16, %13, %10, %3
  %.0 = phi i32 [ -1, %16 ], [ 0, %13 ], [ 0, %10 ], [ 0, %3 ]
  ret i32 %.0
}